; ModuleID = 'source-C-CXX/26/428.c'
source_filename = "source-C-CXX/26/428.c"
target datalayout = "e-m:e-p270:32:32-p271:32:32-p272:64:64-i64:64-f80:128-n8:16:32:64-S128"
target triple = "x86_64-pc-linux-gnu"

@.str = private unnamed_addr constant [3 x i8] c"%d\00", align 1
@.str.1 = private unnamed_addr constant [7 x i8] c"%f%f%f\00", align 1
@.str.2 = private unnamed_addr constant [17 x i8] c"x1=%.5f;x2=%.5f\0A\00", align 1
@.str.3 = private unnamed_addr constant [12 x i8] c"x1=x2=%.5f\0A\00", align 1
@.str.4 = private unnamed_addr constant [29 x i8] c"x1=%.5f+%.5fi;x2=%.5f-%.5fi\0A\00", align 1

; Function Attrs: nofree nounwind sspstrong uwtable
define dso_local i32 @main() local_unnamed_addr #0 {
  %1 = alloca i32, align 4
  %2 = alloca float, align 4
  %3 = alloca float, align 4
  %4 = alloca float, align 4
  %5 = bitcast i32* %1 to i8*
  call void @llvm.lifetime.start.p0i8(i64 4, i8* nonnull %5) #4
  %6 = bitcast float* %2 to i8*
  call void @llvm.lifetime.start.p0i8(i64 4, i8* nonnull %6) #4
  %7 = bitcast float* %3 to i8*
  call void @llvm.lifetime.start.p0i8(i64 4, i8* nonnull %7) #4
  %8 = bitcast float* %4 to i8*
  call void @llvm.lifetime.start.p0i8(i64 4, i8* nonnull %8) #4
  %9 = call i32 (i8*, ...) @__isoc99_scanf(i8* getelementptr inbounds ([3 x i8], [3 x i8]* @.str, i64 0, i64 0), i32* nonnull %1)
  %10 = load i32, i32* %1, align 4, !tbaa !5
  %11 = icmp slt i32 %10, 1
  br i1 %11, label %105, label %12

12:                                               ; preds = %0, %101
  %13 = phi i32 [ %102, %101 ], [ 1, %0 ]
  %14 = call i32 (i8*, ...) @__isoc99_scanf(i8* getelementptr inbounds ([7 x i8], [7 x i8]* @.str.1, i64 0, i64 0), float* nonnull %2, float* nonnull %3, float* nonnull %4)
  %15 = load float, float* %3, align 4, !tbaa !9
  %16 = fmul float %15, %15
  %17 = load float, float* %2, align 4, !tbaa !9
  %18 = fmul float %17, 4.000000e+00
  %19 = load float, float* %4, align 4, !tbaa !9
  %20 = fmul float %18, %19
  %21 = fsub float %16, %20
  %22 = fcmp ogt float %21, 0.000000e+00
  br i1 %22, label %23, label %49

23:                                               ; preds = %12
  %24 = fneg float %15
  %25 = fpext float %24 to double
  %26 = fpext float %21 to double
  %27 = call double @sqrt(double %26) #4
  %28 = fadd double %27, %25
  %29 = load float, float* %2, align 4, !tbaa !9
  %30 = fmul float %29, 2.000000e+00
  %31 = fpext float %30 to double
  %32 = fdiv double %28, %31
  %33 = load float, float* %3, align 4, !tbaa !9
  %34 = fneg float %33
  %35 = fpext float %34 to double
  %36 = fmul float %33, %33
  %37 = fmul float %29, 4.000000e+00
  %38 = load float, float* %4, align 4, !tbaa !9
  %39 = fmul float %37, %38
  %40 = fsub float %36, %39
  %41 = fpext float %40 to double
  %42 = call double @sqrt(double %41) #4
  %43 = fsub double %35, %42
  %44 = load float, float* %2, align 4, !tbaa !9
  %45 = fmul float %44, 2.000000e+00
  %46 = fpext float %45 to double
  %47 = fdiv double %43, %46
  %48 = call i32 (i8*, ...) @printf(i8* nonnull dereferenceable(1) getelementptr inbounds ([17 x i8], [17 x i8]* @.str.2, i64 0, i64 0), double %32, double %47)
  br label %101

49:                                               ; preds = %12
  %50 = fcmp oeq float %21, 0.000000e+00
  br i1 %50, label %51, label %57

51:                                               ; preds = %49
  %52 = fneg float %15
  %53 = fmul float %17, 2.000000e+00
  %54 = fdiv float %52, %53
  %55 = fpext float %54 to double
  %56 = call i32 (i8*, ...) @printf(i8* nonnull dereferenceable(1) getelementptr inbounds ([12 x i8], [12 x i8]* @.str.3, i64 0, i64 0), double %55)
  br label %101

57:                                               ; preds = %49
  %58 = fcmp oeq float %15, 0.000000e+00
  br i1 %58, label %59, label %79

59:                                               ; preds = %57
  %60 = fmul float %17, 2.000000e+00
  %61 = fdiv float %15, %60
  %62 = fpext float %61 to double
  %63 = fneg float %21
  %64 = fpext float %63 to double
  %65 = call double @sqrt(double %64) #4
  %66 = load float, float* %2, align 4, !tbaa !9
  %67 = fmul float %66, 2.000000e+00
  %68 = fpext float %67 to double
  %69 = fdiv double %65, %68
  %70 = load float, float* %3, align 4, !tbaa !9
  %71 = fdiv float %70, %67
  %72 = fpext float %71 to double
  %73 = call double @sqrt(double %64) #4
  %74 = load float, float* %2, align 4, !tbaa !9
  %75 = fmul float %74, 2.000000e+00
  %76 = fpext float %75 to double
  %77 = fdiv double %73, %76
  %78 = call i32 (i8*, ...) @printf(i8* nonnull dereferenceable(1) getelementptr inbounds ([29 x i8], [29 x i8]* @.str.4, i64 0, i64 0), double %62, double %69, double %72, double %77)
  br label %101

79:                                               ; preds = %57
  %80 = fneg float %15
  %81 = fmul float %17, 2.000000e+00
  %82 = fdiv float %80, %81
  %83 = fpext float %82 to double
  %84 = fneg float %21
  %85 = fpext float %84 to double
  %86 = call double @sqrt(double %85) #4
  %87 = load float, float* %2, align 4, !tbaa !9
  %88 = fmul float %87, 2.000000e+00
  %89 = fpext float %88 to double
  %90 = fdiv double %86, %89
  %91 = load float, float* %3, align 4, !tbaa !9
  %92 = fneg float %91
  %93 = fdiv float %92, %88
  %94 = fpext float %93 to double
  %95 = call double @sqrt(double %85) #4
  %96 = load float, float* %2, align 4, !tbaa !9
  %97 = fmul float %96, 2.000000e+00
  %98 = fpext float %97 to double
  %99 = fdiv double %95, %98
  %100 = call i32 (i8*, ...) @printf(i8* nonnull dereferenceable(1) getelementptr inbounds ([29 x i8], [29 x i8]* @.str.4, i64 0, i64 0), double %83, double %90, double %94, double %99)
  br label %101

101:                                              ; preds = %51, %79, %59, %23
  %102 = add nuw nsw i32 %13, 1
  %103 = load i32, i32* %1, align 4, !tbaa !5
  %104 = icmp slt i32 %13, %103
  br i1 %104, label %12, label %105, !llvm.loop !11

105:                                              ; preds = %101, %0
  call void @llvm.lifetime.end.p0i8(i64 4, i8* nonnull %8) #4
  call void @llvm.lifetime.end.p0i8(i64 4, i8* nonnull %7) #4
  call void @llvm.lifetime.end.p0i8(i64 4, i8* nonnull %6) #4
  call void @llvm.lifetime.end.p0i8(i64 4, i8* nonnull %5) #4
  ret i32 0
}

; Function Attrs: argmemonly mustprogress nofree nosync nounwind willreturn
declare void @llvm.lifetime.start.p0i8(i64 immarg, i8* nocapture) #1

; Function Attrs: nofree nounwind
declare noundef i32 @__isoc99_scanf(i8* nocapture noundef readonly, ...) local_unnamed_addr #2

; Function Attrs: nofree nounwind
declare noundef i32 @printf(i8* nocapture noundef readonly, ...) local_unnamed_addr #2

; Function Attrs: mustprogress nofree nounwind willreturn
declare double @sqrt(double) local_unnamed_addr #3

; Function Attrs: argmemonly mustprogress nofree nosync nounwind willreturn
declare void @llvm.lifetime.end.p0i8(i64 immarg, i8* nocapture) #1


!llvm.module.flags = !{!0, !1, !2, !3}
!llvm.ident = !{!4}

!0 = !{i32 1, !"wchar_size", i32 4}
!1 = !{i32 7, !"PIC Level", i32 2}
!2 = !{i32 7, !"PIE Level", i32 2}
!3 = !{i32 7, !"uwtable", i32 1}
!4 = !{!"clang version 13.0.0"}
!5 = !{!6, !6, i64 0}
!6 = !{!"int", !7, i64 0}
!7 = !{!"omnipotent char", !8, i64 0}
!8 = !{!"Simple C/C++ TBAA"}
!9 = !{!10, !10, i64 0}
!10 = !{!"float", !7, i64 0}
!11 = distinct !{!11, !12}
!12 = !{!"llvm.loop.mustprogress"}
